(dp0
S' '
p1
I2
sS'"'
p2
I3
sS'e'
p3
I6
sS'd'
p4
I5
sS'g'
p5
I8
sS'f'
p6
I7
sS'\t'
p7
I0
sS'h'
p8
I9
sS'\n'
p9
I1
sS'l'
p10
I11
sS'o'
p11
I13
sS'n'
p12
I12
sS'i'
p13
I10
sS's'
p14
I15
sS'b'
p15
I4
sS'u'
p16
I17
sS't'
p17
I16
sS'w'
p18
I19
sS'v'
p19
I18
sS'x'
p20
I20
sS'r'
p21
I14
s.