(dp0
S'\x85'
p1
I14
sS'\x93'
p2
I15
sS'\x94'
p3
I16
sS'\x9b'
p4
I17
sS'\x9d'
p5
I18
sS'\x9e'
p6
I19
sS' '
p7
I0
sS'"'
p8
I1
sS'-'
p9
I2
sS'/'
p10
I3
sS'1'
p11
I5
sS'0'
p12
I4
sS'3'
p13
I7
sS'2'
p14
I6
sS'5'
p15
I9
sS'4'
p16
I8
sS'7'
p17
I11
sS'6'
p18
I10
sS'9'
p19
I13
sS'8'
p20
I12
sS'\xbd'
p21
I21
sS'\xbc'
p22
I20
sS'\xbe'
p23
I22
sS'\xc2'
p24
I23
sS'\xe2'
p25
I24
s.