(dp0
S'\t'
p1
I0
sS'\n'
p2
I1
sS' '
p3
I2
sS'"'
p4
I3
sS'/'
p5
I4
sS'1'
p6
I6
sS'0'
p7
I5
sS'2'
p8
I7
sS'5'
p9
I8
sS'7'
p10
I10
sS'6'
p11
I9
sS'8'
p12
I11
sS'a'
p13
I12
sS'c'
p14
I14
sS'b'
p15
I13
sS'e'
p16
I16
sS'd'
p17
I15
sS'g'
p18
I18
sS'f'
p19
I17
sS'i'
p20
I20
sS'h'
p21
I19
sS'm'
p22
I22
sS'l'
p23
I21
sS'o'
p24
I24
sS'n'
p25
I23
sS'q'
p26
I25
sS's'
p27
I27
sS'r'
p28
I26
sS'u'
p29
I29
sS't'
p30
I28
sS'w'
p31
I31
sS'v'
p32
I30
sS'y'
p33
I33
sS'x'
p34
I32
sS'z'
p35
I34
s.