(dp0
S' '
p1
I0
sS'"'
p2
I1
sS')'
p3
I3
sS'('
p4
I2
sS'-'
p5
I4
sS'.'
p6
I5
sS'1'
p7
I7
sS'0'
p8
I6
sS'3'
p9
I9
sS'2'
p10
I8
sS'5'
p11
I11
sS'4'
p12
I10
sS'7'
p13
I13
sS'6'
p14
I12
sS'9'
p15
I15
sS'8'
p16
I14
sS'A'
p17
I16
sS'C'
p18
I18
sS'B'
p19
I17
sS'E'
p20
I20
sS'D'
p21
I19
sS'G'
p22
I22
sS'F'
p23
I21
sS'I'
p24
I24
sS'H'
p25
I23
sS'K'
p26
I26
sS'J'
p27
I25
sS'M'
p28
I28
sS'L'
p29
I27
sS'O'
p30
I30
sS'N'
p31
I29
sS'Q'
p32
I32
sS'P'
p33
I31
sS'S'
p34
I34
sS'R'
p35
I33
sS'U'
p36
I36
sS'T'
p37
I35
sS'W'
p38
I38
sS'V'
p39
I37
sS'Y'
p40
I40
sS'X'
p41
I39
sS'Z'
p42
I41
sS'x'
p43
I42
s.