(dp0
S'\t'
p1
I0
sS'\n'
p2
I1
sS' '
p3
I2
sS'"'
p4
I3
sS'A'
p5
I4
sS'C'
p6
I5
sS'R'
p7
I6
sS'a'
p8
I7
sS'c'
p9
I9
sS'b'
p10
I8
sS'e'
p11
I11
sS'd'
p12
I10
sS'g'
p13
I13
sS'f'
p14
I12
sS'i'
p15
I15
sS'h'
p16
I14
sS'k'
p17
I17
sS'j'
p18
I16
sS'm'
p19
I19
sS'l'
p20
I18
sS'o'
p21
I21
sS'n'
p22
I20
sS'q'
p23
I23
sS'p'
p24
I22
sS's'
p25
I25
sS'r'
p26
I24
sS'u'
p27
I27
sS't'
p28
I26
sS'w'
p29
I29
sS'v'
p30
I28
sS'y'
p31
I31
sS'x'
p32
I30
sS'z'
p33
I32
s.