(dp0
S'\x82'
p1
I57
sS'\xc2'
p2
I61
sS' '
p3
I0
sS'\xa3'
p4
I58
sS'"'
p5
I1
sS'\xa5'
p6
I59
sS'$'
p7
I2
sS'-'
p8
I3
sS'\xac'
p9
I60
sS'.'
p10
I4
sS'1'
p11
I6
sS'0'
p12
I5
sS'3'
p13
I8
sS'2'
p14
I7
sS'5'
p15
I10
sS'4'
p16
I9
sS'7'
p17
I12
sS'6'
p18
I11
sS'9'
p19
I14
sS'8'
p20
I13
sS'\xe2'
p21
I62
sS'A'
p22
I15
sS'C'
p23
I17
sS'B'
p24
I16
sS'E'
p25
I19
sS'D'
p26
I18
sS'G'
p27
I21
sS'F'
p28
I20
sS'I'
p29
I23
sS'H'
p30
I22
sS'K'
p31
I24
sS'M'
p32
I26
sS'L'
p33
I25
sS'O'
p34
I28
sS'N'
p35
I27
sS'P'
p36
I29
sS'S'
p37
I31
sS'R'
p38
I30
sS'U'
p39
I33
sS'T'
p40
I32
sS'W'
p41
I35
sS'V'
p42
I34
sS'Y'
p43
I37
sS'X'
p44
I36
sS'Z'
p45
I38
sS'a'
p46
I39
sS'c'
p47
I41
sS'b'
p48
I40
sS'e'
p49
I43
sS'd'
p50
I42
sS'i'
p51
I45
sS'h'
p52
I44
sS'k'
p53
I46
sS'm'
p54
I48
sS'l'
p55
I47
sS'o'
p56
I50
sS'n'
p57
I49
sS's'
p58
I52
sS'r'
p59
I51
sS'u'
p60
I54
sS't'
p61
I53
sS'w'
p62
I55
sS'y'
p63
I56
s.