(dp0
S'\t'
p1
I0
sS'\n'
p2
I1
sS' '
p3
I2
sS'"'
p4
I3
sS'.'
p5
I4
sS'1'
p6
I6
sS'0'
p7
I5
sS'3'
p8
I8
sS'2'
p9
I7
sS'5'
p10
I10
sS'4'
p11
I9
sS'7'
p12
I12
sS'6'
p13
I11
sS'9'
p14
I14
sS'8'
p15
I13
sS'C'
p16
I15
sS'E'
p17
I17
sS'D'
p18
I16
sS'F'
p19
I18
sS'H'
p20
I19
sS'K'
p21
I20
sS'M'
p22
I21
sS'O'
p23
I23
sS'N'
p24
I22
sS'P'
p25
I24
sS'S'
p26
I25
sS'Y'
p27
I26
sS'a'
p28
I27
sS'c'
p29
I29
sS'b'
p30
I28
sS'e'
p31
I31
sS'd'
p32
I30
sS'g'
p33
I33
sS'f'
p34
I32
sS'i'
p35
I35
sS'h'
p36
I34
sS'k'
p37
I36
sS'm'
p38
I38
sS'l'
p39
I37
sS'o'
p40
I40
sS'n'
p41
I39
sS'p'
p42
I41
sS's'
p43
I43
sS'r'
p44
I42
sS'u'
p45
I45
sS't'
p46
I44
sS'w'
p47
I47
sS'v'
p48
I46
sS'y'
p49
I49
sS'x'
p50
I48
sS'z'
p51
I50
s.