(dp0
S'\x83'
p1
I67
sS'\x87'
p2
I71
sS'\x8b'
p3
I75
sS'\x8f'
p4
I79
sS'\x93'
p5
I83
sS'\x97'
p6
I87
sS'\x9b'
p7
I91
sS'\x9f'
p8
I95
sS'\xa3'
p9
I99
sS'$'
p10
I2
sS'\xa7'
p11
I103
sS'\xab'
p12
I107
sS'\xaf'
p13
I111
sS'0'
p14
I7
sS'\xb3'
p15
I115
sS'4'
p16
I11
sS'\xb7'
p17
I119
sS'8'
p18
I15
sS'\xbb'
p19
I123
sS'\xbf'
p20
I127
sS'D'
p21
I19
sS'H'
p22
I22
sS'\xcb'
p23
I134
sS'L'
p24
I25
sS'\xcf'
p25
I136
sS'P'
p26
I28
sS'\xd3'
p27
I139
sS'T'
p28
I32
sS'\xd7'
p29
I143
sS'X'
p30
I35
sS'\xdb'
p31
I147
sS'\xe3'
p32
I151
sS'd'
p33
I41
sS'\xe7'
p34
I155
sS'h'
p35
I45
sS'\xeb'
p36
I159
sS'l'
p37
I49
sS'\xef'
p38
I162
sS'p'
p39
I53
sS't'
p40
I57
sS'x'
p41
I61
sS'\x80'
p42
I64
sS'\x84'
p43
I68
sS'\x88'
p44
I72
sS'\x8c'
p45
I76
sS'\x90'
p46
I80
sS'\x94'
p47
I84
sS'\x98'
p48
I88
sS'\x9c'
p49
I92
sS'\xa0'
p50
I96
sS'#'
p51
I1
sS'\xa4'
p52
I100
sS'\xa8'
p53
I104
sS'\xac'
p54
I108
sS'\xb0'
p55
I112
sS'3'
p56
I10
sS'\xb4'
p57
I116
sS'7'
p58
I14
sS'\xb8'
p59
I120
sS'\xbc'
p60
I124
sS'C'
p61
I18
sS'\xc4'
p62
I129
sS'G'
p63
I21
sS'K'
p64
I24
sS'\xd0'
p65
I137
sS'S'
p66
I31
sS'\xd4'
p67
I140
sS'W'
p68
I34
sS'\xd8'
p69
I144
sS'_'
p70
I37
sS'\xe0'
p71
I148
sS'c'
p72
I40
sS'\xe4'
p73
I152
sS'g'
p74
I44
sS'\xe8'
p75
I156
sS'k'
p76
I48
sS'\xec'
p77
I160
sS'o'
p78
I52
sS's'
p79
I56
sS'w'
p80
I60
sS'\x81'
p81
I65
sS'\x85'
p82
I69
sS'\x89'
p83
I73
sS'\x8d'
p84
I77
sS'\x91'
p85
I81
sS'\x95'
p86
I85
sS'\x99'
p87
I89
sS'\x9d'
p88
I93
sS'\xa1'
p89
I97
sS'"'
p90
I0
sS'\xa5'
p91
I101
sS'&'
p92
I4
sS'\xa9'
p93
I105
sS'\xad'
p94
I109
sS'.'
p95
I6
sS'\xb1'
p96
I113
sS'2'
p97
I9
sS'\xb5'
p98
I117
sS'6'
p99
I13
sS'\xb9'
p100
I121
sS'\xbd'
p101
I125
sS'B'
p102
I17
sS'\xc5'
p103
I130
sS'F'
p104
I20
sS'\xc9'
p105
I132
sS'J'
p106
I23
sS'N'
p107
I27
sS'\xd1'
p108
I138
sS'R'
p109
I30
sS'\xd5'
p110
I141
sS'V'
p111
I33
sS'\xd9'
p112
I145
sS'Z'
p113
I36
sS'\xe1'
p114
I149
sS'b'
p115
I39
sS'\xe5'
p116
I153
sS'f'
p117
I43
sS'\xe9'
p118
I157
sS'j'
p119
I47
sS'\xed'
p120
I161
sS'n'
p121
I51
sS'r'
p122
I55
sS'v'
p123
I59
sS'z'
p124
I62
sS'~'
p125
I63
sS'\x82'
p126
I66
sS'\x86'
p127
I70
sS'\x8a'
p128
I74
sS'\x8e'
p129
I78
sS'\x92'
p130
I82
sS'\x96'
p131
I86
sS'\x9a'
p132
I90
sS'\x9e'
p133
I94
sS'\xa2'
p134
I98
sS'%'
p135
I3
sS'\xa6'
p136
I102
sS'\xaa'
p137
I106
sS'-'
p138
I5
sS'\xae'
p139
I110
sS'1'
p140
I8
sS'\xb2'
p141
I114
sS'5'
p142
I12
sS'\xb6'
p143
I118
sS'9'
p144
I16
sS'\xba'
p145
I122
sS'\xbe'
p146
I126
sS'\xc2'
p147
I128
sS'\xc6'
p148
I131
sS'\xca'
p149
I133
sS'M'
p150
I26
sS'\xce'
p151
I135
sS'Q'
p152
I29
sS'\xd6'
p153
I142
sS'\xda'
p154
I146
sS'a'
p155
I38
sS'\xe2'
p156
I150
sS'e'
p157
I42
sS'\xe6'
p158
I154
sS'i'
p159
I46
sS'\xea'
p160
I158
sS'm'
p161
I50
sS'q'
p162
I54
sS'u'
p163
I58
s.