(dp0
S'\x83'
p1
I33
sS'\x87'
p2
I37
sS'\x8b'
p3
I41
sS'\x8f'
p4
I45
sS'\x93'
p5
I49
sS'\x97'
p6
I53
sS'\x9b'
p7
I57
sS'\x9f'
p8
I61
sS' '
p9
I2
sS'\xa3'
p10
I65
sS'\xa7'
p11
I69
sS'\xab'
p12
I73
sS'\xaf'
p13
I77
sS'\xb3'
p14
I81
sS'\xb7'
p15
I85
sS'\xbb'
p16
I89
sS'\xbf'
p17
I93
sS'\xcb'
p18
I100
sS'\xd3'
p19
I103
sS'\xd7'
p20
I107
sS'\xdb'
p21
I111
sS'\xe3'
p22
I115
sS'd'
p23
I8
sS'\xe7'
p24
I119
sS'h'
p25
I12
sS'\xeb'
p26
I123
sS'l'
p27
I16
sS'\xef'
p28
I126
sS'p'
p29
I20
sS't'
p30
I24
sS'x'
p31
I28
sS'\x80'
p32
I30
sS'\x84'
p33
I34
sS'\x88'
p34
I38
sS'\x8c'
p35
I42
sS'\x90'
p36
I46
sS'\x94'
p37
I50
sS'\x98'
p38
I54
sS'\x9c'
p39
I58
sS'\xa0'
p40
I62
sS'\xa4'
p41
I66
sS'\xa8'
p42
I70
sS'\xac'
p43
I74
sS'\xb0'
p44
I78
sS'\xb4'
p45
I82
sS'\xb8'
p46
I86
sS'\xbc'
p47
I90
sS'\xc4'
p48
I95
sS'\xd0'
p49
I101
sS'\xd4'
p50
I104
sS'\xd8'
p51
I108
sS'\xe0'
p52
I112
sS'c'
p53
I7
sS'\xe4'
p54
I116
sS'g'
p55
I11
sS'\xe8'
p56
I120
sS'k'
p57
I15
sS'\xec'
p58
I124
sS'o'
p59
I19
sS's'
p60
I23
sS'w'
p61
I27
sS'\x81'
p62
I31
sS'\x85'
p63
I35
sS'\x89'
p64
I39
sS'\n'
p65
I1
sS'\x8d'
p66
I43
sS'\x91'
p67
I47
sS'\x95'
p68
I51
sS'\x99'
p69
I55
sS'\x9d'
p70
I59
sS'\xa1'
p71
I63
sS'"'
p72
I3
sS'\xa5'
p73
I67
sS'\xa9'
p74
I71
sS'\xad'
p75
I75
sS'\xb1'
p76
I79
sS'\xb5'
p77
I83
sS'\xb9'
p78
I87
sS'\xbd'
p79
I91
sS'\xc5'
p80
I96
sS'\xc9'
p81
I98
sS'\xd1'
p82
I102
sS'\xd5'
p83
I105
sS'\xd9'
p84
I109
sS'\xe1'
p85
I113
sS'b'
p86
I6
sS'\xe5'
p87
I117
sS'f'
p88
I10
sS'\xe9'
p89
I121
sS'j'
p90
I14
sS'\xed'
p91
I125
sS'n'
p92
I18
sS'r'
p93
I22
sS'v'
p94
I26
sS'z'
p95
I29
sS'\x82'
p96
I32
sS'\x86'
p97
I36
sS'\t'
p98
I0
sS'\x8a'
p99
I40
sS'\x8e'
p100
I44
sS'\x92'
p101
I48
sS'\x96'
p102
I52
sS'\x9a'
p103
I56
sS'\x9e'
p104
I60
sS'\xa2'
p105
I64
sS'\xa6'
p106
I68
sS'\xaa'
p107
I72
sS'-'
p108
I4
sS'\xae'
p109
I76
sS'\xb2'
p110
I80
sS'\xb6'
p111
I84
sS'\xba'
p112
I88
sS'\xbe'
p113
I92
sS'\xc2'
p114
I94
sS'\xc6'
p115
I97
sS'\xca'
p116
I99
sS'\xd6'
p117
I106
sS'\xda'
p118
I110
sS'a'
p119
I5
sS'\xe2'
p120
I114
sS'e'
p121
I9
sS'\xe6'
p122
I118
sS'i'
p123
I13
sS'\xea'
p124
I122
sS'm'
p125
I17
sS'q'
p126
I21
sS'u'
p127
I25
s.