(dp0
S' '
p1
I0
sS'"'
p2
I1
sS'-'
p3
I2
sS'.'
p4
I3
sS'1'
p5
I5
sS'0'
p6
I4
sS'3'
p7
I7
sS'2'
p8
I6
sS'5'
p9
I9
sS'4'
p10
I8
sS'7'
p11
I11
sS'6'
p12
I10
sS'9'
p13
I13
sS'8'
p14
I12
sS'A'
p15
I14
sS'C'
p16
I16
sS'B'
p17
I15
sS'E'
p18
I17
sS'I'
p19
I18
sS'M'
p20
I19
sS'S'
p21
I21
sS'R'
p22
I20
sS'U'
p23
I22
sS'W'
p24
I23
sS'a'
p25
I24
sS'e'
p26
I25
sS'n'
p27
I26
sS's'
p28
I28
sS'r'
p29
I27
sS't'
p30
I29
s.