(dp0
S'\t'
p1
I0
sS'\n'
p2
I1
sS' '
p3
I2
sS'"'
p4
I3
sS'a'
p5
I4
sS'c'
p6
I6
sS'b'
p7
I5
sS'e'
p8
I8
sS'd'
p9
I7
sS'g'
p10
I10
sS'f'
p11
I9
sS'i'
p12
I12
sS'h'
p13
I11
sS'm'
p14
I14
sS'l'
p15
I13
sS'o'
p16
I16
sS'n'
p17
I15
sS's'
p18
I18
sS'r'
p19
I17
sS'u'
p20
I20
sS't'
p21
I19
sS'w'
p22
I22
sS'v'
p23
I21
sS'y'
p24
I24
sS'x'
p25
I23
sS'z'
p26
I25
s.