(dp0
S' '
p1
I0
sS'"'
p2
I1
sS'-'
p3
I2
sS'.'
p4
I3
sS'1'
p5
I5
sS'0'
p6
I4
sS'3'
p7
I7
sS'2'
p8
I6
sS'5'
p9
I9
sS'4'
p10
I8
sS'7'
p11
I11
sS'6'
p12
I10
sS'9'
p13
I13
sS'8'
p14
I12
sS'E'
p15
I14
sS'I'
p16
I15
sS'a'
p17
I16
sS'b'
p18
I17
sS'd'
p19
I18
sS'i'
p20
I20
sS'h'
p21
I19
sS'm'
p22
I22
sS'l'
p23
I21
sS'o'
p24
I24
sS'n'
p25
I23
sS's'
p26
I26
sS'r'
p27
I25
sS'u'
p28
I28
sS't'
p29
I27
s.