(dp0
S'\xe9'
p1
I58
sS' '
p2
I0
sS'"'
p3
I1
sS"'"
p4
I3
sS'&'
p5
I2
sS'-'
p6
I4
sS'.'
p7
I5
sS'A'
p8
I6
sS'C'
p9
I8
sS'B'
p10
I7
sS'E'
p11
I10
sS'D'
p12
I9
sS'G'
p13
I12
sS'F'
p14
I11
sS'I'
p15
I14
sS'H'
p16
I13
sS'K'
p17
I16
sS'J'
p18
I15
sS'M'
p19
I18
sS'L'
p20
I17
sS'O'
p21
I20
sS'N'
p22
I19
sS'Q'
p23
I22
sS'P'
p24
I21
sS'S'
p25
I24
sS'R'
p26
I23
sS'U'
p27
I26
sS'T'
p28
I25
sS'W'
p29
I28
sS'V'
p30
I27
sS'Y'
p31
I30
sS'X'
p32
I29
sS'Z'
p33
I31
sS'a'
p34
I32
sS'c'
p35
I34
sS'b'
p36
I33
sS'e'
p37
I36
sS'd'
p38
I35
sS'g'
p39
I38
sS'f'
p40
I37
sS'i'
p41
I40
sS'h'
p42
I39
sS'k'
p43
I42
sS'j'
p44
I41
sS'm'
p45
I44
sS'l'
p46
I43
sS'o'
p47
I46
sS'n'
p48
I45
sS'q'
p49
I48
sS'p'
p50
I47
sS's'
p51
I50
sS'r'
p52
I49
sS'u'
p53
I52
sS't'
p54
I51
sS'w'
p55
I54
sS'v'
p56
I53
sS'y'
p57
I56
sS'x'
p58
I55
sS'z'
p59
I57
s.