(dp0
S'\t'
p1
I0
sS'\n'
p2
I1
sS' '
p3
I2
sS'"'
p4
I3
sS"'"
p5
I4
sS'A'
p6
I5
sS'C'
p7
I7
sS'B'
p8
I6
sS'E'
p9
I9
sS'D'
p10
I8
sS'G'
p11
I11
sS'F'
p12
I10
sS'I'
p13
I13
sS'H'
p14
I12
sS'K'
p15
I15
sS'J'
p16
I14
sS'M'
p17
I17
sS'L'
p18
I16
sS'O'
p19
I19
sS'N'
p20
I18
sS'Q'
p21
I21
sS'P'
p22
I20
sS'S'
p23
I23
sS'R'
p24
I22
sS'U'
p25
I25
sS'T'
p26
I24
sS'W'
p27
I27
sS'V'
p28
I26
sS'Y'
p29
I29
sS'X'
p30
I28
sS'Z'
p31
I30
sS'a'
p32
I31
sS'c'
p33
I33
sS'b'
p34
I32
sS'e'
p35
I35
sS'd'
p36
I34
sS'g'
p37
I37
sS'f'
p38
I36
sS'i'
p39
I39
sS'h'
p40
I38
sS'k'
p41
I41
sS'j'
p42
I40
sS'm'
p43
I43
sS'l'
p44
I42
sS'o'
p45
I45
sS'n'
p46
I44
sS'q'
p47
I47
sS'p'
p48
I46
sS's'
p49
I49
sS'r'
p50
I48
sS'u'
p51
I51
sS't'
p52
I50
sS'w'
p53
I53
sS'v'
p54
I52
sS'y'
p55
I55
sS'x'
p56
I54
sS'z'
p57
I56
s.