(dp0
S' '
p1
I0
sS'"'
p2
I1
sS"'"
p3
I2
sS'-'
p4
I3
sS'.'
p5
I4
sS'1'
p6
I6
sS'0'
p7
I5
sS'3'
p8
I8
sS'2'
p9
I7
sS'5'
p10
I10
sS'4'
p11
I9
sS'7'
p12
I12
sS'6'
p13
I11
sS'9'
p14
I14
sS'8'
p15
I13
sS':'
p16
I15
sS'D'
p17
I16
sS'I'
p18
I17
sS'L'
p19
I18
sS'S'
p20
I19
sS'U'
p21
I20
sS'V'
p22
I21
sS'X'
p23
I22
sS's'
p24
I23
s.