(dp0
S'\t'
p1
I0
sS'\n'
p2
I1
sS' '
p3
I2
sS'"'
p4
I3
sS"'"
p5
I4
sS'1'
p6
I6
sS'0'
p7
I5
sS'3'
p8
I8
sS'2'
p9
I7
sS'5'
p10
I10
sS'4'
p11
I9
sS'7'
p12
I12
sS'6'
p13
I11
sS'9'
p14
I14
sS'8'
p15
I13
sS'a'
p16
I15
sS'b'
p17
I16
sS'e'
p18
I18
sS'd'
p19
I17
sS'g'
p20
I20
sS'f'
p21
I19
sS'i'
p22
I22
sS'h'
p23
I21
sS'm'
p24
I24
sS'l'
p25
I23
sS'o'
p26
I26
sS'n'
p27
I25
sS's'
p28
I28
sS'r'
p29
I27
sS'u'
p30
I30
sS't'
p31
I29
sS'w'
p32
I32
sS'v'
p33
I31
sS'y'
p34
I34
sS'x'
p35
I33
sS'z'
p36
I35
s.