(dp0
S' '
p1
I0
sS'"'
p2
I1
sS"'"
p3
I2
sS'-'
p4
I3
sS'/'
p5
I5
sS'.'
p6
I4
sS'1'
p7
I7
sS'0'
p8
I6
sS'3'
p9
I9
sS'2'
p10
I8
sS'5'
p11
I11
sS'4'
p12
I10
sS'7'
p13
I13
sS'6'
p14
I12
sS'9'
p15
I15
sS'8'
p16
I14
sS'A'
p17
I16
sS'C'
p18
I18
sS'B'
p19
I17
sS'E'
p20
I20
sS'D'
p21
I19
sS'F'
p22
I21
sS'J'
p23
I22
sS'M'
p24
I24
sS'L'
p25
I23
sS'O'
p26
I26
sS'N'
p27
I25
sS'S'
p28
I27
sS'U'
p29
I29
sS'T'
p30
I28
sS'W'
p31
I30
sS'Y'
p32
I31
sS'a'
p33
I32
sS'c'
p34
I34
sS'b'
p35
I33
sS'e'
p36
I36
sS'd'
p37
I35
sS'g'
p38
I37
sS'i'
p39
I39
sS'h'
p40
I38
sS'j'
p41
I40
sS'm'
p42
I42
sS'l'
p43
I41
sS'o'
p44
I44
sS'n'
p45
I43
sS'p'
p46
I45
sS's'
p47
I47
sS'r'
p48
I46
sS'u'
p49
I49
sS't'
p50
I48
sS'v'
p51
I50
sS'y'
p52
I51
s.