(dp0
S'\t'
p1
I0
sS'\n'
p2
I1
sS' '
p3
I2
sS'"'
p4
I3
sS'.'
p5
I4
sS'1'
p6
I6
sS'0'
p7
I5
sS'3'
p8
I8
sS'2'
p9
I7
sS'5'
p10
I10
sS'4'
p11
I9
sS'7'
p12
I12
sS'6'
p13
I11
sS'9'
p14
I14
sS'8'
p15
I13
sS'A'
p16
I15
sS'D'
p17
I16
sS'F'
p18
I17
sS'J'
p19
I18
sS'O'
p20
I20
sS'N'
p21
I19
sS'S'
p22
I21
sS'a'
p23
I22
sS'c'
p24
I24
sS'b'
p25
I23
sS'e'
p26
I26
sS'd'
p27
I25
sS'g'
p28
I28
sS'f'
p29
I27
sS'i'
p30
I30
sS'h'
p31
I29
sS'j'
p32
I31
sS'm'
p33
I33
sS'l'
p34
I32
sS'o'
p35
I35
sS'n'
p36
I34
sS'p'
p37
I36
sS's'
p38
I38
sS'r'
p39
I37
sS'u'
p40
I40
sS't'
p41
I39
sS'w'
p42
I42
sS'v'
p43
I41
sS'y'
p44
I44
sS'x'
p45
I43
s.