(dp0
S'\x85'
p1
I58
sS'\x93'
p2
I59
sS'\xc2'
p3
I66
sS'\xb5'
p4
I62
sS' '
p5
I0
sS'"'
p6
I1
sS'%'
p7
I2
sS"'"
p8
I3
sS'-'
p9
I4
sS'\xb3'
p10
I61
sS'/'
p11
I6
sS'.'
p12
I5
sS'1'
p13
I8
sS'0'
p14
I7
sS'3'
p15
I10
sS'2'
p16
I9
sS'5'
p17
I12
sS'4'
p18
I11
sS'7'
p19
I14
sS'6'
p20
I13
sS'9'
p21
I16
sS'8'
p22
I15
sS'\xbd'
p23
I64
sS'\xbc'
p24
I63
sS'\xbe'
p25
I65
sS'A'
p26
I17
sS'C'
p27
I19
sS'B'
p28
I18
sS'D'
p29
I20
sS'G'
p30
I21
sS'H'
p31
I22
sS'K'
p32
I24
sS'J'
p33
I23
sS'M'
p34
I26
sS'L'
p35
I25
sS'N'
p36
I27
sS'P'
p37
I28
sS'S'
p38
I29
sS'\xe2'
p39
I68
sS'U'
p40
I31
sS'T'
p41
I30
sS'W'
p42
I33
sS'V'
p43
I32
sS'\xce'
p44
I67
sS'\xb2'
p45
I60
sS'a'
p46
I34
sS'c'
p47
I36
sS'b'
p48
I35
sS'e'
p49
I38
sS'd'
p50
I37
sS'g'
p51
I40
sS'f'
p52
I39
sS'i'
p53
I42
sS'h'
p54
I41
sS'k'
p55
I43
sS'm'
p56
I45
sS'l'
p57
I44
sS'o'
p58
I47
sS'n'
p59
I46
sS'q'
p60
I49
sS'p'
p61
I48
sS's'
p62
I51
sS'r'
p63
I50
sS'u'
p64
I53
sS't'
p65
I52
sS'w'
p66
I55
sS'v'
p67
I54
sS'y'
p68
I56
sS'z'
p69
I57
s.