(dp0
S'\t'
p1
I0
sS'\n'
p2
I1
sS'\xc2'
p3
I53
sS' '
p4
I2
sS'"'
p5
I3
sS'%'
p6
I4
sS'\xb3'
p7
I52
sS'/'
p8
I6
sS'.'
p9
I5
sS'1'
p10
I8
sS'0'
p11
I7
sS'3'
p12
I10
sS'2'
p13
I9
sS'5'
p14
I12
sS'4'
p15
I11
sS'7'
p16
I14
sS'6'
p17
I13
sS'9'
p18
I16
sS'8'
p19
I15
sS'B'
p20
I17
sS'D'
p21
I18
sS'G'
p22
I19
sS'H'
p23
I20
sS'K'
p24
I21
sS'M'
p25
I22
sS'T'
p26
I23
sS'W'
p27
I24
sS'\xb2'
p28
I51
sS'a'
p29
I25
sS'c'
p30
I27
sS'b'
p31
I26
sS'e'
p32
I29
sS'd'
p33
I28
sS'g'
p34
I31
sS'f'
p35
I30
sS'i'
p36
I33
sS'h'
p37
I32
sS'k'
p38
I35
sS'j'
p39
I34
sS'm'
p40
I37
sS'l'
p41
I36
sS'o'
p42
I39
sS'n'
p43
I38
sS'q'
p44
I41
sS'p'
p45
I40
sS's'
p46
I43
sS'r'
p47
I42
sS'u'
p48
I45
sS't'
p49
I44
sS'w'
p50
I47
sS'v'
p51
I46
sS'y'
p52
I49
sS'x'
p53
I48
sS'z'
p54
I50
s.