cpandas.core.indexes.base
_new_Index
p0
(cpandas.core.indexes.base
Index
p1
(dp2
S'data'
p3
cnumpy.core.multiarray
_reconstruct
p4
(cnumpy
ndarray
p5
(I0
tp6
S'b'
p7
tp8
Rp9
(I1
(I16
tp10
cnumpy
dtype
p11
(S'O8'
p12
I0
I1
tp13
Rp14
(I3
S'|'
p15
NNNI-1
I-1
I63
tp16
bI00
(lp17
S'PLAIN'
p18
aS'PUNCT'
p19
aS'DATE'
p20
aS'LETTERS'
p21
aS'CARDINAL'
p22
aS'VERBATIM'
p23
aS'DECIMAL'
p24
aS'MEASURE'
p25
aS'MONEY'
p26
aS'ORDINAL'
p27
aS'TIME'
p28
aS'ELECTRONIC'
p29
aS'DIGIT'
p30
aS'FRACTION'
p31
aS'TELEPHONE'
p32
aS'ADDRESS'
p33
atp34
bsS'name'
p35
Nstp36
Rp37
.