(dp0
S'\xe9'
p1
I59
sS' '
p2
I0
sS'"'
p3
I1
sS"'"
p4
I3
sS'&'
p5
I2
sS'-'
p6
I4
sS'/'
p7
I6
sS'.'
p8
I5
sS'A'
p9
I7
sS'C'
p10
I9
sS'B'
p11
I8
sS'E'
p12
I11
sS'D'
p13
I10
sS'G'
p14
I13
sS'F'
p15
I12
sS'I'
p16
I15
sS'H'
p17
I14
sS'K'
p18
I17
sS'J'
p19
I16
sS'M'
p20
I19
sS'L'
p21
I18
sS'O'
p22
I21
sS'N'
p23
I20
sS'Q'
p24
I23
sS'P'
p25
I22
sS'S'
p26
I25
sS'R'
p27
I24
sS'U'
p28
I27
sS'T'
p29
I26
sS'W'
p30
I29
sS'V'
p31
I28
sS'Y'
p32
I31
sS'X'
p33
I30
sS'Z'
p34
I32
sS'a'
p35
I33
sS'c'
p36
I35
sS'b'
p37
I34
sS'e'
p38
I37
sS'd'
p39
I36
sS'g'
p40
I39
sS'f'
p41
I38
sS'i'
p42
I41
sS'h'
p43
I40
sS'k'
p44
I43
sS'j'
p45
I42
sS'm'
p46
I45
sS'l'
p47
I44
sS'o'
p48
I47
sS'n'
p49
I46
sS'q'
p50
I49
sS'p'
p51
I48
sS's'
p52
I51
sS'r'
p53
I50
sS'u'
p54
I53
sS't'
p55
I52
sS'w'
p56
I55
sS'v'
p57
I54
sS'y'
p58
I57
sS'x'
p59
I56
sS'z'
p60
I58
s.