(dp0
S' '
p1
I0
sS'"'
p2
I1
sS'.'
p3
I2
sS'1'
p4
I4
sS'0'
p5
I3
sS'3'
p6
I6
sS'2'
p7
I5
sS'5'
p8
I8
sS'4'
p9
I7
sS'7'
p10
I10
sS'6'
p11
I9
sS'9'
p12
I12
sS'8'
p13
I11
sS':'
p14
I13
sS'A'
p15
I14
sS'C'
p16
I16
sS'B'
p17
I15
sS'E'
p18
I18
sS'D'
p19
I17
sS'G'
p20
I19
sS'I'
p21
I20
sS'K'
p22
I21
sS'M'
p23
I22
sS'P'
p24
I23
sS'S'
p25
I24
sS'U'
p26
I26
sS'T'
p27
I25
sS'Z'
p28
I27
sS'a'
p29
I28
sS'm'
p30
I29
sS'p'
p31
I30
s.