(dp0
S'\t'
p1
I0
sS'\n'
p2
I1
sS' '
p3
I2
sS'"'
p4
I3
sS"'"
p5
I4
sS'a'
p6
I5
sS'c'
p7
I7
sS'b'
p8
I6
sS'e'
p9
I9
sS'd'
p10
I8
sS'g'
p11
I11
sS'f'
p12
I10
sS'i'
p13
I13
sS'h'
p14
I12
sS'k'
p15
I14
sS'm'
p16
I16
sS'l'
p17
I15
sS'o'
p18
I18
sS'n'
p19
I17
sS'p'
p20
I19
sS's'
p21
I21
sS'r'
p22
I20
sS'u'
p23
I23
sS't'
p24
I22
sS'w'
p25
I25
sS'v'
p26
I24
sS'y'
p27
I27
sS'x'
p28
I26
sS'z'
p29
I28
s.