(dp0
S' '
p1
I0
sS'"'
p2
I1
sS"'"
p3
I2
sS'\xaa'
p4
I32
sS'.'
p5
I3
sS'1'
p6
I5
sS'0'
p7
I4
sS'3'
p8
I7
sS'2'
p9
I6
sS'5'
p10
I9
sS'4'
p11
I8
sS'7'
p12
I11
sS'6'
p13
I10
sS'9'
p14
I13
sS'8'
p15
I12
sS'\xba'
p16
I33
sS'C'
p17
I14
sS'\xc2'
p18
I34
sS'D'
p19
I15
sS'I'
p20
I17
sS'H'
p21
I16
sS'M'
p22
I19
sS'L'
p23
I18
sS'N'
p24
I20
sS'S'
p25
I22
sS'R'
p26
I21
sS'T'
p27
I23
sS'V'
p28
I24
sS'X'
p29
I25
sS'd'
p30
I26
sS'h'
p31
I27
sS'n'
p32
I28
sS's'
p33
I30
sS'r'
p34
I29
sS't'
p35
I31
s.