(dp0
S'\t'
p1
I0
sS'\n'
p2
I1
sS' '
p3
I2
sS'"'
p4
I3
sS"'"
p5
I4
sS'1'
p6
I6
sS'0'
p7
I5
sS'2'
p8
I7
sS'5'
p9
I9
sS'4'
p10
I8
sS'6'
p11
I10
sS'9'
p12
I12
sS'8'
p13
I11
sS'a'
p14
I13
sS'c'
p15
I14
sS'e'
p16
I16
sS'd'
p17
I15
sS'g'
p18
I18
sS'f'
p19
I17
sS'i'
p20
I20
sS'h'
p21
I19
sS'l'
p22
I21
sS'o'
p23
I23
sS'n'
p24
I22
sS's'
p25
I25
sS'r'
p26
I24
sS'u'
p27
I27
sS't'
p28
I26
sS'w'
p29
I29
sS'v'
p30
I28
sS'y'
p31
I31
sS'x'
p32
I30
s.